target datalayout = "e-m:e-p270:32:32-p271:32:32-p272:64:64-i64:64-i128:128-f80:128-n8:16:32:64-S128"
target triple = "x86_64-pc-linux-gnu"

%struct.b2TreeNode = type { %struct.b2AABB, i64, %union.anon, i32, %union.anon.0, i16, i16 }
%struct.b2AABB = type { %struct.b2Vec2, %struct.b2Vec2 }
%struct.b2Vec2 = type { float, float }
%union.anon = type { i32 }
%union.anon.0 = type { i32 }
%struct.b2DynamicTree = type { ptr, i32, i32, i32, i32, i32, ptr, ptr, ptr, ptr, i32 }

; Function Attrs: nounwind uwtable
define { <2 x float>, <2 x float> } @b2DynamicTree_GetAABB(ptr noundef %0, i32 noundef %1) #0 {
  %3 = alloca %struct.b2AABB, align 4
  %4 = alloca ptr, align 8
  %5 = alloca i32, align 4
  store ptr %0, ptr %4, align 8, !tbaa !27
  store i32 %1, ptr %5, align 4, !tbaa !16
  %6 = load ptr, ptr %4, align 8, !tbaa !27
  %7 = getelementptr inbounds nuw %struct.b2DynamicTree, ptr %6, i32 0, i32 0
  %8 = load ptr, ptr %7, align 8, !tbaa !15
  %9 = load i32, ptr %5, align 4, !tbaa !16
  %10 = sext i32 %9 to i64
  %11 = getelementptr inbounds %struct.b2TreeNode, ptr %8, i64 %10
  %12 = getelementptr inbounds nuw %struct.b2TreeNode, ptr %11, i32 0, i32 0
  call void @llvm.memcpy.p0.p0.i64(ptr align 4 %3, ptr align 8 %12, i64 16, i1 false), !tbaa.struct !32
  %13 = load { <2 x float>, <2 x float> }, ptr %3, align 4
  ret { <2 x float>, <2 x float> } %13
}